Certificate:
    Data:
        Version: 3 (0x2)
        Serial Number: 1 (0x1)
    Signature Algorithm: sha512WithRSAEncryption
        Issuer: C=US, CN=*.cisco.com, O=cisco
        Validity
            Not Before: Mar  2 05:20:49 2016 GMT
            Not After : Feb 28 05:20:49 2026 GMT
        Subject: O=cisco, CN=*.cisco.com
        Subject Public Key Info:
            Public Key Algorithm: rsaEncryption
                Public-Key: (4096 bit)
                Modulus:
                    00:d1:0e:96:8a:70:83:6a:42:b6:a5:ce:ba:2c:6d:
                    29:12:43:e9:35:d9:2a:83:11:09:7f:2e:ca:e9:27:
                    2a:f4:16:1a:b7:9a:29:e4:89:41:a2:ab:4c:41:e6:
                    6a:59:02:87:3a:73:d7:f1:8e:8b:5d:47:ac:aa:34:
                    ec:23:d9:ce:9c:3b:55:24:02:7a:39:b2:37:7e:47:
                    73:05:62:be:e3:df:d5:e2:1d:30:36:a0:db:8b:74:
                    27:ec:1c:aa:8e:80:c1:fb:19:c0:ec:d2:81:0b:fb:
                    4d:0b:4d:6a:05:e8:97:a9:4c:fd:41:68:35:c9:0f:
                    d0:73:32:01:09:89:d2:04:ba:b3:96:cc:42:9c:9c:
                    a6:f5:5d:71:ab:5d:a8:ff:ec:34:9f:db:07:bb:b3:
                    52:16:f6:f3:af:ec:fe:de:8f:33:1b:90:8d:73:4f:
                    42:65:3b:e6:ca:f2:1d:ff:b3:16:55:0d:25:32:25:
                    54:ce:6f:62:7c:1b:fb:d0:28:c0:a9:2f:55:52:a1:
                    14:b7:8b:1f:8e:c5:a3:fd:85:ca:11:09:6e:12:59:
                    ec:cb:f2:7b:06:b2:44:c4:95:37:21:22:91:28:78:
                    f7:87:2a:2d:8b:5f:b8:85:70:0e:49:6d:20:f2:59:
                    04:5b:2c:a6:a4:84:7c:e8:45:5d:96:8e:96:d7:97:
                    1f:a1:d4:f6:e4:7e:ad:c6:e9:7d:ba:92:0f:a2:f3:
                    33:2f:f3:b4:50:3f:9b:f9:25:21:df:af:67:de:94:
                    ae:53:62:08:f7:f8:29:eb:c3:e3:b1:c3:49:57:ff:
                    0d:f6:1c:4f:09:b6:f2:45:b0:73:85:9f:5f:2c:8b:
                    ba:06:f6:99:1a:ac:56:23:96:ab:c4:4f:82:6b:72:
                    3d:7d:54:dd:5c:94:0d:3e:e1:a6:f3:ff:c4:d5:b8:
                    80:c9:de:80:ad:ee:4f:80:8c:3b:ac:04:f9:4d:83:
                    b2:ad:f1:8d:61:94:61:ce:c1:12:bb:ca:fa:ee:3b:
                    fc:3d:c2:8d:30:b7:d0:f8:6d:3f:b8:37:ec:15:cc:
                    78:69:a3:48:99:e9:b9:ef:e6:2e:79:c9:35:17:06:
                    e5:49:7b:07:21:9a:13:fe:0f:8b:b9:49:18:30:97:
                    b1:3e:41:96:d0:cd:be:d1:4a:ee:a8:47:51:fb:3c:
                    89:98:fa:ff:88:cc:9b:3d:8c:87:c2:4c:f1:ed:6b:
                    ca:ef:18:82:c9:6f:63:e6:e2:22:1f:14:5f:fa:27:
                    3c:8e:38:0a:fc:ed:5d:1b:6b:cc:51:09:42:bb:5c:
                    a3:e4:5f:25:da:7e:6b:20:6b:d5:08:16:83:16:68:
                    e1:a3:97:8c:83:c6:ad:8d:3c:bd:f6:af:0f:82:ca:
                    60:5d:05
                Exponent: 65537 (0x10001)
        X509v3 extensions:
            X509v3 Basic Constraints: 
                CA:FALSE
            X509v3 Extended Key Usage: 
                TLS Web Client Authentication, TLS Web Server Authentication
            X509v3 Key Usage: 
                Digital Signature, Key Encipherment
            X509v3 Subject Alternative Name: 
                IP Address:127.0.0.1
    Signature Algorithm: sha512WithRSAEncryption
         3c:c7:4f:78:6b:be:d8:1b:a6:6f:fd:f7:9b:18:96:3e:cb:8a:
         35:66:99:ac:6c:69:82:d6:23:8e:7e:58:a2:3c:25:06:82:41:
         44:3c:5d:35:31:08:db:d7:8a:9a:04:31:79:a8:93:12:be:3b:
         56:af:9c:75:7f:4b:6c:88:97:f3:7a:2a:93:66:b3:22:56:d7:
         ed:d7:8f:58:a0:af:f5:23:13:92:ee:9d:39:20:99:2a:c3:71:
         91:4f:33:e3:27:8d:b9:0d:a7:6e:1d:20:a3:70:60:e6:43:cb:
         62:55:6e:7c:58:4f:5d:86:42:b8:ec:87:34:95:7c:4f:6f:7d:
         ef:f9:27:dc:44:11:53:b8:a1:ed:1b:55:de:f6:35:97:f8:20:
         b7:f3:6d:91:18:b4:91:0a:7f:1d:f4:ea:be:cc:76:e5:03:62:
         58:7d:a7:82:b6:27:85:aa:4a:b3:86:13:c4:ab:8f:4c:d3:38:
         4c:6f:1a:53:d5:58:56:3d:00:10:2a:6f:e4:15:6f:ba:f5:1f:
         26:52:e3:de:89:a0:41:3e:e3:80:b8:ad:21:d6:87:7b:e0:8c:
         d3:a8:92:7e:82:c8:d5:c7:c5:85:8e:33:57:f4:cf:3c:14:b0:
         82:4d:fa:44:b9:95:bf:30:9e:1e:12:80:c6:16:fe:21:cd:f7:
         1a:5f:e2:c2:3c:a1:4a:3b:0d:44:29:1b:32:29:33:b0:6a:82:
         4e:49:a9:30:6c:bf:fa:de:cf:52:78:2e:b7:52:04:11:26:c3:
         9f:21:8a:f7:5c:c2:81:e1:a9:de:42:06:b9:84:24:c0:2d:fb:
         f0:bc:0b:6b:f8:f0:e3:a4:8f:f1:7c:1a:06:2e:da:86:a5:27:
         6f:27:34:6c:3f:71:07:92:49:4e:1c:e5:63:ca:5d:cc:a4:08:
         ed:d7:09:b6:e1:2f:21:7d:d3:84:c1:bf:ed:8f:54:bf:37:fa:
         8f:f2:fc:04:e0:93:c7:0c:42:5e:73:bf:47:75:fc:f4:67:3c:
         18:9a:1a:d4:2f:ad:c7:72:3b:a5:f2:b2:9f:94:1a:bd:41:3f:
         c7:7f:90:1b:d7:a3:e8:f6:1d:5b:aa:5b:50:87:cf:7b:4b:4a:
         65:a3:4e:1c:12:14:62:45:29:9e:af:3b:3b:36:8d:07:1c:7c:
         88:48:e9:f0:ed:83:16:66:19:0b:0b:df:6b:f4:2d:1b:4c:0e:
         29:e5:57:39:7f:a0:1b:ee:7e:5b:1c:53:76:9b:99:48:20:ee:
         c3:e2:d4:8c:9b:60:55:8e:70:e9:3e:51:3a:fd:b6:c2:44:02:
         cb:cf:a7:01:69:b6:4a:4a:e8:80:a2:75:71:3f:11:93:4c:d6:
         cc:d4:d4:a2:32:32:e3:90
-----BEGIN CERTIFICATE-----
MIIFHjCCAwagAwIBAgIBATANBgkqhkiG9w0BAQ0FADAzMQswCQYDVQQGEwJVUzEU
MBIGA1UEAwwLKi5jaXNjby5jb20xDjAMBgNVBAoMBWNpc2NvMB4XDTE2MDMwMjA1
MjA0OVoXDTI2MDIyODA1MjA0OVowJjEOMAwGA1UECgwFY2lzY28xFDASBgNVBAMM
CyouY2lzY28uY29tMIICIjANBgkqhkiG9w0BAQEFAAOCAg8AMIICCgKCAgEA0Q6W
inCDakK2pc66LG0pEkPpNdkqgxEJfy7K6Scq9BYat5op5IlBoqtMQeZqWQKHOnPX
8Y6LXUesqjTsI9nOnDtVJAJ6ObI3fkdzBWK+49/V4h0wNqDbi3Qn7ByqjoDB+xnA
7NKBC/tNC01qBeiXqUz9QWg1yQ/QczIBCYnSBLqzlsxCnJym9V1xq12o/+w0n9sH
u7NSFvbzr+z+3o8zG5CNc09CZTvmyvId/7MWVQ0lMiVUzm9ifBv70CjAqS9VUqEU
t4sfjsWj/YXKEQluElnsy/J7BrJExJU3ISKRKHj3hyoti1+4hXAOSW0g8lkEWyym
pIR86EVdlo6W15cfodT25H6txul9upIPovMzL/O0UD+b+SUh369n3pSuU2II9/gp
68PjscNJV/8N9hxPCbbyRbBzhZ9fLIu6BvaZGqxWI5arxE+Ca3I9fVTdXJQNPuGm
8//E1biAyd6Are5PgIw7rAT5TYOyrfGNYZRhzsESu8r67jv8PcKNMLfQ+G0/uDfs
Fcx4aaNImem57+Yueck1FwblSXsHIZoT/g+LuUkYMJexPkGW0M2+0UruqEdR+zyJ
mPr/iMybPYyHwkzx7WvK7xiCyW9j5uIiHxRf+ic8jjgK/O1dG2vMUQlCu1yj5F8l
2n5rIGvVCBaDFmjho5eMg8atjTy99q8PgspgXQUCAwEAAaNKMEgwCQYDVR0TBAIw
ADAdBgNVHSUEFjAUBggrBgEFBQcDAgYIKwYBBQUHAwEwCwYDVR0PBAQDAgWgMA8G
A1UdEQQIMAaHBH8AAAEwDQYJKoZIhvcNAQENBQADggIBADzHT3hrvtgbpm/995sY
lj7LijVmmaxsaYLWI45+WKI8JQaCQUQ8XTUxCNvXipoEMXmokxK+O1avnHV/S2yI
l/N6KpNmsyJW1+3Xj1igr/UjE5LunTkgmSrDcZFPM+MnjbkNp24dIKNwYOZDy2JV
bnxYT12GQrjshzSVfE9vfe/5J9xEEVO4oe0bVd72NZf4ILfzbZEYtJEKfx306r7M
duUDYlh9p4K2J4WqSrOGE8Srj0zTOExvGlPVWFY9ABAqb+QVb7r1HyZS496JoEE+
44C4rSHWh3vgjNOokn6CyNXHxYWOM1f0zzwUsIJN+kS5lb8wnh4SgMYW/iHN9xpf
4sI8oUo7DUQpGzIpM7Bqgk5JqTBsv/rez1J4LrdSBBEmw58hivdcwoHhqd5CBrmE
JMAt+/C8C2v48OOkj/F8GgYu2oalJ28nNGw/cQeSSU4c5WPKXcykCO3XCbbhLyF9
04TBv+2PVL83+o/y/ATgk8cMQl5zv0d1/PRnPBiaGtQvrcdyO6Xysp+UGr1BP8d/
kBvXo+j2HVuqW1CHz3tLSmWjThwSFGJFKZ6vOzs2jQccfIhI6fDtgxZmGQsL32v0
LRtMDinlVzl/oBvuflscU3abmUgg7sPi1IybYFWOcOk+UTr9tsJEAsvPpwFptkpK
6ICidXE/EZNM1szU1KIyMuOQ
-----END CERTIFICATE-----
